target datalayout = "e-m:e-p270:32:32-p271:32:32-p272:64:64-i64:64-i128:128-f80:128-n8:16:32:64-S128"
target triple = "x86_64-pc-linux-gnu"

%class.QWidget = type { %class.QObject, %class.QPaintDevice.base, ptr }
%class.QObject = type { ptr, %class.QScopedPointer }
%class.QScopedPointer = type { ptr }
%class.QPaintDevice.base = type <{ ptr, i16 }>
%class.QPoint = type { i32, i32 }
%class.QCursor = type { ptr }
%class.DragDropTabBar = type <{ %class.QTabBar, %class.QPoint, %class.QPoint, %class.QCursor, i8, [7 x i8] }>
%class.QTabBar = type { %class.QWidget }

@_ZTV14DragDropTabBar = external unnamed_addr constant { [60 x ptr], [10 x ptr] }, align 8

; Function Attrs: inlinehint mustprogress nounwind null_pointer_is_valid sspstrong uwtable
define linkonce_odr void @_ZSt4swapIP11QCursorDataENSt9enable_ifIXsr6__and_ISt6__not_ISt15__is_tuple_likeIT_EESt21is_move_constructibleIS5_ESt18is_move_assignableIS5_EEE5valueEvE4typeERS5_SE_(ptr noundef align 8 dereferenceable(8) %0, ptr noundef align 8 dereferenceable(8) %1) #2 comdat {
  %3 = alloca ptr, align 8
  %4 = alloca ptr, align 8
  %5 = alloca ptr, align 8
  store ptr %0, ptr %3, align 8
  store ptr %1, ptr %4, align 8
  call void @llvm.lifetime.start.p0(i64 8, ptr %5) #12
  %6 = load ptr, ptr %3, align 8
  %7 = load ptr, ptr %6, align 8
  store ptr %7, ptr %5, align 8
  %8 = load ptr, ptr %4, align 8
  %9 = load ptr, ptr %8, align 8
  %10 = load ptr, ptr %3, align 8
  store ptr %9, ptr %10, align 8
  %11 = load ptr, ptr %5, align 8
  %12 = load ptr, ptr %4, align 8
  store ptr %11, ptr %12, align 8
  call void @llvm.lifetime.end.p0(i64 8, ptr %5) #12
  ret void
}

; Function Attrs: mustprogress nounwind null_pointer_is_valid sspstrong uwtable
define linkonce_odr void @_Z5qSwapIP11QCursorDataEvRT_S3_(ptr noundef align 8 dereferenceable(8) %0, ptr noundef align 8 dereferenceable(8) %1) #8 comdat {
  %3 = alloca ptr, align 8
  %4 = alloca ptr, align 8
  store ptr %0, ptr %3, align 8
  store ptr %1, ptr %4, align 8
  %5 = load ptr, ptr %3, align 8
  %6 = load ptr, ptr %4, align 8
  call void @_ZSt4swapIP11QCursorDataENSt9enable_ifIXsr6__and_ISt6__not_ISt15__is_tuple_likeIT_EESt21is_move_constructibleIS5_ESt18is_move_assignableIS5_EEE5valueEvE4typeERS5_SE_(ptr noundef align 8 dereferenceable(8) %5, ptr noundef align 8 dereferenceable(8) %6) #12
  ret void
}

; Function Attrs: noinline noreturn nounwind null_pointer_is_valid sspstrong uwtable
define linkonce_odr hidden void @__clang_call_terminate(ptr noundef %0) #10 comdat {
  %2 = call ptr @__cxa_begin_catch(ptr %0) #12
  call void @_ZSt9terminatev() #18
  unreachable
}

; Function Attrs: mustprogress nounwind null_pointer_is_valid sspstrong uwtable
define linkonce_odr noundef ptr @_Z9qExchangeIP11QCursorDataDnET_RS2_OT0_(ptr noundef align 8 dereferenceable(8) %0, ptr noundef align 8 dereferenceable(8) %1) #8 comdat {
  %3 = alloca ptr, align 8
  %4 = alloca ptr, align 8
  %5 = alloca ptr, align 8
  store ptr %0, ptr %3, align 8
  store ptr %1, ptr %4, align 8
  call void @llvm.lifetime.start.p0(i64 8, ptr %5) #12
  %6 = load ptr, ptr %3, align 8
  %7 = load ptr, ptr %6, align 8
  store ptr %7, ptr %5, align 8
  %8 = load ptr, ptr %3, align 8
  store ptr null, ptr %8, align 8
  %9 = load ptr, ptr %5, align 8
  call void @llvm.lifetime.end.p0(i64 8, ptr %5) #12
  ret ptr %9
}

; Function Attrs: mustprogress nounwind null_pointer_is_valid sspstrong uwtable
define linkonce_odr void @_ZN7QCursor4swapERS_(ptr noundef align 8 dereferenceable_or_null(8) %0, ptr noundef align 8 dereferenceable(8) %1) #8 comdat align 2 {
  %3 = alloca ptr, align 8
  %4 = alloca ptr, align 8
  store ptr %0, ptr %3, align 8
  store ptr %1, ptr %4, align 8
  %5 = load ptr, ptr %3, align 8
  %6 = getelementptr inbounds nuw %class.QCursor, ptr %5, i32 0, i32 0
  %7 = load ptr, ptr %4, align 8
  %8 = getelementptr inbounds nuw %class.QCursor, ptr %7, i32 0, i32 0
  call void @_Z5qSwapIP11QCursorDataEvRT_S3_(ptr noundef align 8 dereferenceable(8) %6, ptr noundef align 8 dereferenceable(8) %8) #12
  ret void
}

; Function Attrs: mustprogress nounwind null_pointer_is_valid sspstrong uwtable
define linkonce_odr void @_ZN7QCursorC2EOS_(ptr noundef align 8 dereferenceable_or_null(8) %0, ptr noundef align 8 dereferenceable(8) %1) unnamed_addr #8 comdat align 2 personality ptr @__gxx_personality_v0 {
  %3 = alloca ptr, align 8
  %4 = alloca ptr, align 8
  %5 = alloca ptr, align 8
  store ptr %0, ptr %3, align 8
  store ptr %1, ptr %4, align 8
  %6 = load ptr, ptr %3, align 8
  %7 = getelementptr inbounds nuw %class.QCursor, ptr %6, i32 0, i32 0
  %8 = load ptr, ptr %4, align 8
  %9 = getelementptr inbounds nuw %class.QCursor, ptr %8, i32 0, i32 0
  call void @llvm.lifetime.start.p0(i64 8, ptr %5) #12
  store ptr null, ptr %5, align 8
  %10 = invoke noundef ptr @_Z9qExchangeIP11QCursorDataDnET_RS2_OT0_(ptr noundef align 8 dereferenceable(8) %9, ptr noundef align 8 dereferenceable(8) %5)
          to label %11 unwind label %12

11:                                               ; preds = %2
  call void @llvm.lifetime.end.p0(i64 8, ptr %5) #12
  store ptr %10, ptr %7, align 8
  ret void

12:                                               ; preds = %2
  %13 = landingpad { ptr, i32 }
          catch ptr null
  %14 = extractvalue { ptr, i32 } %13, 0
  call void @__clang_call_terminate(ptr %14) #18
  unreachable
}

; Function Attrs: mustprogress nounwind null_pointer_is_valid sspstrong uwtable
define linkonce_odr noundef align 8 dereferenceable(8) ptr @_ZN7QCursoraSEOS_(ptr noundef align 8 dereferenceable_or_null(8) %0, ptr noundef align 8 dereferenceable(8) %1) #8 comdat align 2 {
  %3 = alloca ptr, align 8
  %4 = alloca ptr, align 8
  %5 = alloca %class.QCursor, align 8
  store ptr %0, ptr %3, align 8
  store ptr %1, ptr %4, align 8
  %6 = load ptr, ptr %3, align 8
  call void @llvm.lifetime.start.p0(i64 8, ptr %5) #12
  %7 = load ptr, ptr %4, align 8
  call void @_ZN7QCursorC2EOS_(ptr noundef align 8 dereferenceable_or_null(8) %5, ptr noundef align 8 dereferenceable(8) %7) #12
  call void @_ZN7QCursor4swapERS_(ptr noundef align 8 dereferenceable_or_null(8) %6, ptr noundef align 8 dereferenceable(8) %5) #12
  call void @_ZN7QCursorD1Ev(ptr noundef align 8 dereferenceable_or_null(8) %5) #12
  call void @llvm.lifetime.end.p0(i64 8, ptr %5) #12
  ret ptr %6
}

; Function Attrs: inlinehint mustprogress nounwind null_pointer_is_valid sspstrong uwtable
define linkonce_odr void @_ZN6QPointC2Ev(ptr noundef align 4 dereferenceable_or_null(8) %0) unnamed_addr #2 comdat align 2 {
  %2 = alloca ptr, align 8
  store ptr %0, ptr %2, align 8
  %3 = load ptr, ptr %2, align 8
  %4 = getelementptr inbounds nuw %class.QPoint, ptr %3, i32 0, i32 0
  store i32 0, ptr %4, align 4
  %5 = getelementptr inbounds nuw %class.QPoint, ptr %3, i32 0, i32 1
  store i32 0, ptr %5, align 4
  ret void
}

; Function Attrs: mustprogress null_pointer_is_valid sspstrong uwtable
define void @_ZN14DragDropTabBarC2EP7QWidget(ptr noundef align 8 dereferenceable_or_null(65) %0, ptr noundef %1) unnamed_addr #0 align 2 personality ptr @__gxx_personality_v0 {
  %3 = alloca ptr, align 8
  %4 = alloca ptr, align 8
  %5 = alloca ptr, align 8
  %6 = alloca i32, align 4
  %7 = alloca %class.QPoint, align 4
  %8 = alloca %class.QPoint, align 4
  %9 = alloca %class.QCursor, align 8
  store ptr %0, ptr %3, align 8
  store ptr %1, ptr %4, align 8
  %10 = load ptr, ptr %3, align 8
  %11 = load ptr, ptr %4, align 8
  call void @_ZN7QTabBarC2EP7QWidget(ptr noundef align 8 dereferenceable_or_null(40) %10, ptr noundef %11)
  store ptr getelementptr inbounds inrange(-16, 464) ({ [60 x ptr], [10 x ptr] }, ptr @_ZTV14DragDropTabBar, i32 0, i32 0, i32 2), ptr %10, align 8
  %12 = getelementptr inbounds i8, ptr %10, i64 16
  store ptr getelementptr inbounds inrange(-16, 64) ({ [60 x ptr], [10 x ptr] }, ptr @_ZTV14DragDropTabBar, i32 0, i32 1, i32 2), ptr %12, align 8
  %13 = getelementptr inbounds nuw %class.DragDropTabBar, ptr %10, i32 0, i32 1
  call void @_ZN6QPointC2Ev(ptr noundef align 4 dereferenceable_or_null(8) %13) #12
  %14 = getelementptr inbounds nuw %class.DragDropTabBar, ptr %10, i32 0, i32 2
  call void @_ZN6QPointC2Ev(ptr noundef align 4 dereferenceable_or_null(8) %14) #12
  %15 = getelementptr inbounds nuw %class.DragDropTabBar, ptr %10, i32 0, i32 3
  invoke void @_ZN7QCursorC1Ev(ptr noundef align 8 dereferenceable_or_null(8) %15)
          to label %16 unwind label %26

16:                                               ; preds = %2
  invoke void @_ZN7QWidget14setAcceptDropsEb(ptr noundef align 8 dereferenceable_or_null(40) %10, i1 noundef zeroext true)
          to label %17 unwind label %30

17:                                               ; preds = %16
  invoke void @_ZN7QTabBar12setElideModeEN2Qt13TextElideModeE(ptr noundef align 8 dereferenceable_or_null(40) %10, i32 noundef 1)
          to label %18 unwind label %30

18:                                               ; preds = %17
  invoke void @_ZN7QTabBar28setSelectionBehaviorOnRemoveENS_17SelectionBehaviorE(ptr noundef align 8 dereferenceable_or_null(40) %10, i32 noundef 0)
          to label %19 unwind label %30

19:                                               ; preds = %18
  call void @llvm.lifetime.start.p0(i64 8, ptr %7) #12
  call void @_ZN6QPointC2Ev(ptr noundef align 4 dereferenceable_or_null(8) %7) #12
  %20 = getelementptr inbounds nuw %class.DragDropTabBar, ptr %10, i32 0, i32 1
  call void @llvm.memcpy.p0.p0.i64(ptr align 8 %20, ptr align 4 %7, i64 8, i1 false)
  call void @llvm.lifetime.end.p0(i64 8, ptr %7) #12
  call void @llvm.lifetime.start.p0(i64 8, ptr %8) #12
  call void @_ZN6QPointC2Ev(ptr noundef align 4 dereferenceable_or_null(8) %8) #12
  %21 = getelementptr inbounds nuw %class.DragDropTabBar, ptr %10, i32 0, i32 2
  call void @llvm.memcpy.p0.p0.i64(ptr align 8 %21, ptr align 4 %8, i64 8, i1 false)
  call void @llvm.lifetime.end.p0(i64 8, ptr %8) #12
  call void @llvm.lifetime.start.p0(i64 8, ptr %9) #12
  invoke void @_ZN7QCursorC1Ev(ptr noundef align 8 dereferenceable_or_null(8) %9)
          to label %22 unwind label %34

22:                                               ; preds = %19
  %23 = getelementptr inbounds nuw %class.DragDropTabBar, ptr %10, i32 0, i32 3
  %24 = call noundef align 8 dereferenceable(8) ptr @_ZN7QCursoraSEOS_(ptr noundef align 8 dereferenceable_or_null(8) %23, ptr noundef align 8 dereferenceable(8) %9) #12
  call void @_ZN7QCursorD1Ev(ptr noundef align 8 dereferenceable_or_null(8) %9) #12
  call void @llvm.lifetime.end.p0(i64 8, ptr %9) #12
  %25 = getelementptr inbounds nuw %class.DragDropTabBar, ptr %10, i32 0, i32 4
  store i8 0, ptr %25, align 8
  ret void

26:                                               ; preds = %2
  %27 = landingpad { ptr, i32 }
          cleanup
  %28 = extractvalue { ptr, i32 } %27, 0
  store ptr %28, ptr %5, align 8
  %29 = extractvalue { ptr, i32 } %27, 1
  store i32 %29, ptr %6, align 4
  br label %39

30:                                               ; preds = %18, %17, %16
  %31 = landingpad { ptr, i32 }
          cleanup
  %32 = extractvalue { ptr, i32 } %31, 0
  store ptr %32, ptr %5, align 8
  %33 = extractvalue { ptr, i32 } %31, 1
  store i32 %33, ptr %6, align 4
  br label %38

34:                                               ; preds = %19
  %35 = landingpad { ptr, i32 }
          cleanup
  %36 = extractvalue { ptr, i32 } %35, 0
  store ptr %36, ptr %5, align 8
  %37 = extractvalue { ptr, i32 } %35, 1
  store i32 %37, ptr %6, align 4
  call void @llvm.lifetime.end.p0(i64 8, ptr %9) #12
  br label %38

38:                                               ; preds = %34, %30
  call void @_ZN7QCursorD1Ev(ptr noundef align 8 dereferenceable_or_null(8) %15) #12
  br label %39

39:                                               ; preds = %38, %26
  call void @_ZN7QTabBarD2Ev(ptr noundef align 8 dereferenceable_or_null(40) %10) #12
  br label %40

40:                                               ; preds = %39
  %41 = load ptr, ptr %5, align 8
  %42 = load i32, ptr %6, align 4
  %43 = insertvalue { ptr, i32 } poison, ptr %41, 0
  %44 = insertvalue { ptr, i32 } %43, i32 %42, 1
  resume { ptr, i32 } %44
}