; Function Attrs: mustprogress null_pointer_is_valid sspstrong uwtable
define void @_ZN14DragDropTabBarC2EP7QWidget(ptr noundef align 8 dereferenceable_or_null(65) %0, ptr noundef %1) unnamed_addr #0 align 2 personality ptr @__gxx_personality_v0 {
  %3 = alloca %class.QCursor, align 8
  %4 = alloca %class.QCursor, align 8
  tail call void @_ZN7QTabBarC2EP7QWidget(ptr noundef align 8 dereferenceable_or_null(40) %0, ptr noundef %1)
  store ptr getelementptr inbounds nuw inrange(-16, 464) (i8, ptr @_ZTV14DragDropTabBar, i64 16), ptr %0, align 8
  %5 = getelementptr inbounds nuw i8, ptr %0, i64 16
  store ptr getelementptr inbounds nuw inrange(-16, 64) (i8, ptr @_ZTV14DragDropTabBar, i64 496), ptr %5, align 8
  %6 = getelementptr inbounds nuw i8, ptr %0, i64 40
  %7 = getelementptr inbounds nuw i8, ptr %0, i64 56
  tail call void @llvm.memset.p0.i64(ptr noundef nonnull align 8 dereferenceable(16) %6, i8 0, i64 16, i1 false)
  invoke void @_ZN7QCursorC1Ev(ptr noundef nonnull align 8 dereferenceable_or_null(8) %7)
          to label %8 unwind label %16

8:                                                ; preds = %2
  invoke void @_ZN7QWidget14setAcceptDropsEb(ptr noundef align 8 dereferenceable_or_null(40) %0, i1 noundef zeroext true)
          to label %9 unwind label %18

9:                                                ; preds = %8
  invoke void @_ZN7QTabBar12setElideModeEN2Qt13TextElideModeE(ptr noundef align 8 dereferenceable_or_null(40) %0, i32 noundef 1)
          to label %10 unwind label %18

10:                                               ; preds = %9
  invoke void @_ZN7QTabBar28setSelectionBehaviorOnRemoveENS_17SelectionBehaviorE(ptr noundef align 8 dereferenceable_or_null(40) %0, i32 noundef 0)
          to label %11 unwind label %18

11:                                               ; preds = %10
  tail call void @llvm.memset.p0.i64(ptr noundef nonnull align 8 dereferenceable(16) %6, i8 0, i64 16, i1 false)
  call void @llvm.lifetime.start.p0(i64 8, ptr nonnull %4) #18
  invoke void @_ZN7QCursorC1Ev(ptr noundef nonnull align 8 dereferenceable_or_null(8) %4)
          to label %12 unwind label %20

12:                                               ; preds = %11
  call void @llvm.lifetime.start.p0(i64 8, ptr nonnull %3) #18
  %13 = load ptr, ptr %4, align 8
  store ptr null, ptr %4, align 8
  %14 = load ptr, ptr %7, align 8
  store ptr %13, ptr %7, align 8
  store ptr %14, ptr %3, align 8
  call void @_ZN7QCursorD1Ev(ptr noundef nonnull align 8 dereferenceable_or_null(8) %3) #18
  call void @llvm.lifetime.end.p0(i64 8, ptr nonnull %3) #18
  call void @_ZN7QCursorD1Ev(ptr noundef nonnull align 8 dereferenceable_or_null(8) %4) #18
  call void @llvm.lifetime.end.p0(i64 8, ptr nonnull %4) #18
  %15 = getelementptr inbounds nuw i8, ptr %0, i64 64
  store i8 0, ptr %15, align 8
  ret void

16:                                               ; preds = %2
  %17 = landingpad { ptr, i32 }
          cleanup
  br label %23

18:                                               ; preds = %10, %9, %8
  %19 = landingpad { ptr, i32 }
          cleanup
  br label %22

20:                                               ; preds = %11
  %21 = landingpad { ptr, i32 }
          cleanup
  call void @llvm.lifetime.end.p0(i64 8, ptr nonnull %4) #18
  br label %22

22:                                               ; preds = %20, %18
  %.pn = phi { ptr, i32 } [ %21, %20 ], [ %19, %18 ]
  call void @_ZN7QCursorD1Ev(ptr noundef nonnull align 8 dereferenceable_or_null(8) %7) #18
  br label %23

23:                                               ; preds = %22, %16
  %.pn.pn = phi { ptr, i32 } [ %.pn, %22 ], [ %17, %16 ]
  call void @_ZN7QTabBarD2Ev(ptr noundef align 8 dereferenceable_or_null(40) %0) #18
  resume { ptr, i32 } %.pn.pn
}